target datalayout = "e-m:e-p270:32:32-p271:32:32-p272:64:64-i64:64-i128:128-f80:128-n8:16:32:64-S128"
target triple = "x86_64-unknown-linux-gnu"

%"struct.rocksdb::Cache::CacheItemHelper" = type { ptr, ptr, ptr, ptr, i32, ptr }
%"class.std::shared_ptr" = type { %"class.std::__shared_ptr" }
%"class.std::__shared_ptr" = type { ptr, %"class.std::__shared_count" }
%"class.std::__shared_count" = type { ptr }
%"class.rocksdb::FullTypedCacheInterface" = type <{ %"class.rocksdb::BasicTypedCacheInterface", [8 x i8] }>
%"class.rocksdb::BasicTypedCacheInterface" = type { %"class.rocksdb::BaseCacheInterface" }
%"class.rocksdb::BaseCacheInterface" = type { %"class.std::shared_ptr" }
%"class.rocksdb::BlobSource" = type <{ ptr, ptr, ptr, ptr, %"class.rocksdb::FullTypedCacheInterface", i8, [7 x i8] }>

@_ZZN7rocksdb20FullTypedCacheHelperINS_12BlobContentsENS_19BlobContentsCreatorELNS_14CacheEntryRoleE11EE13GetFullHelperEvE7kHelper = linkonce_odr global %"struct.rocksdb::Cache::CacheItemHelper" zeroinitializer, comdat, align 8
@_ZGVZN7rocksdb20FullTypedCacheHelperINS_12BlobContentsENS_19BlobContentsCreatorELNS_14CacheEntryRoleE11EE13GetFullHelperEvE7kHelper = linkonce_odr global i64 0, comdat, align 8

; Function Attrs: mustprogress nounwind uwtable
define linkonce_odr noundef ptr @_ZNKSt12__shared_ptrIN7rocksdb5CacheELN9__gnu_cxx12_Lock_policyE2EE3getEv(ptr noundef nonnull align 8 dereferenceable(16) %this) #1 comdat align 2 {
entry:
  %this.addr = alloca ptr, align 8
  store ptr %this, ptr %this.addr, align 8
  %this1 = load ptr, ptr %this.addr, align 8
  %_M_ptr = getelementptr inbounds %"class.std::__shared_ptr", ptr %this1, i32 0, i32 0
  %0 = load ptr, ptr %_M_ptr, align 8
  ret ptr %0
}

; Function Attrs: mustprogress uwtable
define linkonce_odr noundef ptr @_ZN7rocksdb5Cache11BasicLookupERKNS_5SliceEPNS_10StatisticsE(ptr noundef nonnull align 8 dereferenceable(56) %this, ptr noundef nonnull align 8 dereferenceable(16) %key, ptr noundef %stats) #0 comdat align 2 {
entry:
  %this.addr = alloca ptr, align 8
  %key.addr = alloca ptr, align 8
  %stats.addr = alloca ptr, align 8
  store ptr %this, ptr %this.addr, align 8
  store ptr %key, ptr %key.addr, align 8
  store ptr %stats, ptr %stats.addr, align 8
  %this1 = load ptr, ptr %this.addr, align 8
  %0 = load ptr, ptr %key.addr, align 8
  %1 = load ptr, ptr %stats.addr, align 8
  %vtable = load ptr, ptr %this1, align 8
  %vfn = getelementptr inbounds ptr, ptr %vtable, i64 5
  %2 = load ptr, ptr %vfn, align 8
  %call = call noundef ptr %2(ptr noundef nonnull align 8 dereferenceable(56) %this1, ptr noundef nonnull align 8 dereferenceable(16) %0, ptr noundef null, ptr noundef null, i32 noundef 1, ptr noundef %1)
  ret ptr %call
}

; Function Attrs: mustprogress nounwind uwtable
define linkonce_odr void @_ZN7rocksdb5Cache15CacheItemHelperC2ENS_14CacheEntryRoleEPFvPvPNS_15MemoryAllocatorEEPFmS3_EPFNS_6StatusES3_mmPcEPFSA_RKNS_5SliceENS_15CompressionTypeENS_9CacheTierEPNS0_13CreateContextES5_PS3_PmEPKS1_(ptr noundef nonnull align 8 dereferenceable(48) %this, i32 noundef %_role, ptr noundef %_del_cb, ptr noundef %_size_cb, ptr noundef %_saveto_cb, ptr noundef %_create_cb, ptr noundef %_without_secondary_compat) unnamed_addr #1 comdat align 2 {
entry:
  %this.addr = alloca ptr, align 8
  %_role.addr = alloca i32, align 4
  %_del_cb.addr = alloca ptr, align 8
  %_size_cb.addr = alloca ptr, align 8
  %_saveto_cb.addr = alloca ptr, align 8
  %_create_cb.addr = alloca ptr, align 8
  %_without_secondary_compat.addr = alloca ptr, align 8
  store ptr %this, ptr %this.addr, align 8
  store i32 %_role, ptr %_role.addr, align 4
  store ptr %_del_cb, ptr %_del_cb.addr, align 8
  store ptr %_size_cb, ptr %_size_cb.addr, align 8
  store ptr %_saveto_cb, ptr %_saveto_cb.addr, align 8
  store ptr %_create_cb, ptr %_create_cb.addr, align 8
  store ptr %_without_secondary_compat, ptr %_without_secondary_compat.addr, align 8
  %this1 = load ptr, ptr %this.addr, align 8
  %del_cb = getelementptr inbounds %"struct.rocksdb::Cache::CacheItemHelper", ptr %this1, i32 0, i32 0
  %0 = load ptr, ptr %_del_cb.addr, align 8
  store ptr %0, ptr %del_cb, align 8
  %size_cb = getelementptr inbounds %"struct.rocksdb::Cache::CacheItemHelper", ptr %this1, i32 0, i32 1
  %1 = load ptr, ptr %_size_cb.addr, align 8
  store ptr %1, ptr %size_cb, align 8
  %saveto_cb = getelementptr inbounds %"struct.rocksdb::Cache::CacheItemHelper", ptr %this1, i32 0, i32 2
  %2 = load ptr, ptr %_saveto_cb.addr, align 8
  store ptr %2, ptr %saveto_cb, align 8
  %create_cb = getelementptr inbounds %"struct.rocksdb::Cache::CacheItemHelper", ptr %this1, i32 0, i32 3
  %3 = load ptr, ptr %_create_cb.addr, align 8
  store ptr %3, ptr %create_cb, align 8
  %role = getelementptr inbounds %"struct.rocksdb::Cache::CacheItemHelper", ptr %this1, i32 0, i32 4
  %4 = load i32, ptr %_role.addr, align 4
  store i32 %4, ptr %role, align 8
  %without_secondary_compat = getelementptr inbounds %"struct.rocksdb::Cache::CacheItemHelper", ptr %this1, i32 0, i32 5
  %5 = load ptr, ptr %_without_secondary_compat.addr, align 8
  store ptr %5, ptr %without_secondary_compat, align 8
  ret void
}

; Function Attrs: mustprogress nounwind uwtable
define linkonce_odr noundef ptr @_ZNKSt19__shared_ptr_accessIN7rocksdb5CacheELN9__gnu_cxx12_Lock_policyE2ELb0ELb0EE6_M_getEv(ptr noundef nonnull align 1 dereferenceable(1) %this) #1 comdat align 2 {
entry:
  %this.addr = alloca ptr, align 8
  store ptr %this, ptr %this.addr, align 8
  %this1 = load ptr, ptr %this.addr, align 8
  %call = call noundef ptr @_ZNKSt12__shared_ptrIN7rocksdb5CacheELN9__gnu_cxx12_Lock_policyE2EE3getEv(ptr noundef nonnull align 8 dereferenceable(16) %this1) #3
  ret ptr %call
}

; Function Attrs: mustprogress uwtable
define linkonce_odr noundef ptr @_ZN7rocksdb24BasicTypedCacheInterfaceINS_12BlobContentsELNS_14CacheEntryRoleE11ESt10shared_ptrINS_5CacheEEE6LookupERKNS_5SliceEPNS_10StatisticsE(ptr noundef nonnull align 8 dereferenceable(16) %this, ptr noundef nonnull align 8 dereferenceable(16) %key, ptr noundef %stats) #0 comdat align 2 {
entry:
  %this.addr = alloca ptr, align 8
  %key.addr = alloca ptr, align 8
  %stats.addr = alloca ptr, align 8
  store ptr %this, ptr %this.addr, align 8
  store ptr %key, ptr %key.addr, align 8
  store ptr %stats, ptr %stats.addr, align 8
  %this1 = load ptr, ptr %this.addr, align 8
  %cache_ = getelementptr inbounds %"class.rocksdb::BaseCacheInterface", ptr %this1, i32 0, i32 0
  %call = call noundef ptr @_ZNKSt19__shared_ptr_accessIN7rocksdb5CacheELN9__gnu_cxx12_Lock_policyE2ELb0ELb0EEptEv(ptr noundef nonnull align 1 dereferenceable(1) %cache_) #3
  %0 = load ptr, ptr %key.addr, align 8
  %1 = load ptr, ptr %stats.addr, align 8
  %call2 = call noundef ptr @_ZN7rocksdb5Cache11BasicLookupERKNS_5SliceEPNS_10StatisticsE(ptr noundef nonnull align 8 dereferenceable(56) %call, ptr noundef nonnull align 8 dereferenceable(16) %0, ptr noundef %1)
  ret ptr %call2
}

; Function Attrs: mustprogress uwtable
define linkonce_odr noundef ptr @_ZN7rocksdb20FullTypedCacheHelperINS_12BlobContentsENS_19BlobContentsCreatorELNS_14CacheEntryRoleE11EE13GetFullHelperEv() #0 comdat align 2 personality ptr @__gxx_personality_v0 {
entry:
  %exn.slot = alloca ptr, align 8
  %ehselector.slot = alloca i32, align 4
  %0 = load atomic i8, ptr @_ZGVZN7rocksdb20FullTypedCacheHelperINS_12BlobContentsENS_19BlobContentsCreatorELNS_14CacheEntryRoleE11EE13GetFullHelperEvE7kHelper acquire, align 8
  %guard.uninitialized = icmp eq i8 %0, 0
  br i1 %guard.uninitialized, label %init.check, label %init.end, !prof !11

init.check:                                       ; preds = %entry
  %1 = call i32 @__cxa_guard_acquire(ptr @_ZGVZN7rocksdb20FullTypedCacheHelperINS_12BlobContentsENS_19BlobContentsCreatorELNS_14CacheEntryRoleE11EE13GetFullHelperEvE7kHelper) #3
  %tobool = icmp ne i32 %1, 0
  br i1 %tobool, label %init, label %init.end

init:                                             ; preds = %init.check
  %call = invoke noundef ptr @_ZN7rocksdb21BasicTypedCacheHelperINS_12BlobContentsELNS_14CacheEntryRoleE11EE14GetBasicHelperEv()
          to label %invoke.cont unwind label %lpad

invoke.cont:                                      ; preds = %init
  invoke void @_ZN7rocksdb5Cache15CacheItemHelperC2ENS_14CacheEntryRoleEPFvPvPNS_15MemoryAllocatorEEPFmS3_EPFNS_6StatusES3_mmPcEPFSA_RKNS_5SliceENS_15CompressionTypeENS_9CacheTierEPNS0_13CreateContextES5_PS3_PmEPKS1_(ptr noundef nonnull align 8 dereferenceable(48) @_ZZN7rocksdb20FullTypedCacheHelperINS_12BlobContentsENS_19BlobContentsCreatorELNS_14CacheEntryRoleE11EE13GetFullHelperEvE7kHelper, i32 noundef 11, ptr noundef @_ZN7rocksdb24BasicTypedCacheHelperFnsINS_12BlobContentsEE6DeleteEPvPNS_15MemoryAllocatorE, ptr noundef @_ZN7rocksdb23FullTypedCacheHelperFnsINS_12BlobContentsENS_19BlobContentsCreatorEE4SizeEPv, ptr noundef @_ZN7rocksdb23FullTypedCacheHelperFnsINS_12BlobContentsENS_19BlobContentsCreatorEE6SaveToEPvmmPc, ptr noundef @_ZN7rocksdb23FullTypedCacheHelperFnsINS_12BlobContentsENS_19BlobContentsCreatorEE6CreateERKNS_5SliceENS_15CompressionTypeENS_9CacheTierEPNS_5Cache13CreateContextEPNS_15MemoryAllocatorEPPvPm, ptr noundef %call)
          to label %invoke.cont1 unwind label %lpad

invoke.cont1:                                     ; preds = %invoke.cont
  call void @__cxa_guard_release(ptr @_ZGVZN7rocksdb20FullTypedCacheHelperINS_12BlobContentsENS_19BlobContentsCreatorELNS_14CacheEntryRoleE11EE13GetFullHelperEvE7kHelper) #3
  br label %init.end

init.end:                                         ; preds = %invoke.cont1, %init.check, %entry
  ret ptr @_ZZN7rocksdb20FullTypedCacheHelperINS_12BlobContentsENS_19BlobContentsCreatorELNS_14CacheEntryRoleE11EE13GetFullHelperEvE7kHelper

lpad:                                             ; preds = %invoke.cont, %init
  %2 = landingpad { ptr, i32 }
          cleanup
  %3 = extractvalue { ptr, i32 } %2, 0
  store ptr %3, ptr %exn.slot, align 8
  %4 = extractvalue { ptr, i32 } %2, 1
  store i32 %4, ptr %ehselector.slot, align 4
  call void @__cxa_guard_abort(ptr @_ZGVZN7rocksdb20FullTypedCacheHelperINS_12BlobContentsENS_19BlobContentsCreatorELNS_14CacheEntryRoleE11EE13GetFullHelperEvE7kHelper) #3
  br label %eh.resume

eh.resume:                                        ; preds = %lpad
  %exn = load ptr, ptr %exn.slot, align 8
  %sel = load i32, ptr %ehselector.slot, align 4
  %lpad.val = insertvalue { ptr, i32 } poison, ptr %exn, 0
  %lpad.val2 = insertvalue { ptr, i32 } %lpad.val, i32 %sel, 1
  resume { ptr, i32 } %lpad.val2
}

; Function Attrs: mustprogress nounwind uwtable
define linkonce_odr noundef ptr @_ZNKSt19__shared_ptr_accessIN7rocksdb5CacheELN9__gnu_cxx12_Lock_policyE2ELb0ELb0EEptEv(ptr noundef nonnull align 1 dereferenceable(1) %this) #1 comdat align 2 {
entry:
  %this.addr = alloca ptr, align 8
  store ptr %this, ptr %this.addr, align 8
  %this1 = load ptr, ptr %this.addr, align 8
  %call = call noundef ptr @_ZNKSt19__shared_ptr_accessIN7rocksdb5CacheELN9__gnu_cxx12_Lock_policyE2ELb0ELb0EE6_M_getEv(ptr noundef nonnull align 1 dereferenceable(1) %this1) #3
  ret ptr %call
}

; Function Attrs: mustprogress uwtable
define linkonce_odr noundef ptr @_ZN7rocksdb23FullTypedCacheInterfaceINS_12BlobContentsENS_19BlobContentsCreatorELNS_14CacheEntryRoleE11ESt10shared_ptrINS_5CacheEEE10LookupFullERKNS_5SliceEPS2_NS5_8PriorityEPNS_10StatisticsENS_9CacheTierE(ptr noundef nonnull align 8 dereferenceable(17) %this, ptr noundef nonnull align 8 dereferenceable(16) %key, ptr noundef %create_context, i32 noundef %priority, ptr noundef %stats, i8 noundef zeroext %lowest_used_cache_tier) #0 comdat align 2 {
entry:
  %retval = alloca ptr, align 8
  %this.addr = alloca ptr, align 8
  %key.addr = alloca ptr, align 8
  %create_context.addr = alloca ptr, align 8
  %priority.addr = alloca i32, align 4
  %stats.addr = alloca ptr, align 8
  %lowest_used_cache_tier.addr = alloca i8, align 1
  store ptr %this, ptr %this.addr, align 8
  store ptr %key, ptr %key.addr, align 8
  store ptr %create_context, ptr %create_context.addr, align 8
  store i32 %priority, ptr %priority.addr, align 4
  store ptr %stats, ptr %stats.addr, align 8
  store i8 %lowest_used_cache_tier, ptr %lowest_used_cache_tier.addr, align 1
  %this1 = load ptr, ptr %this.addr, align 8
  %0 = load i8, ptr %lowest_used_cache_tier.addr, align 1
  %cmp = icmp ugt i8 %0, 0
  br i1 %cmp, label %if.then, label %if.else

if.then:                                          ; preds = %entry
  %cache_ = getelementptr inbounds %"class.rocksdb::BaseCacheInterface", ptr %this1, i32 0, i32 0
  %call = call noundef ptr @_ZNKSt19__shared_ptr_accessIN7rocksdb5CacheELN9__gnu_cxx12_Lock_policyE2ELb0ELb0EEptEv(ptr noundef nonnull align 1 dereferenceable(1) %cache_) #3
  %1 = load ptr, ptr %key.addr, align 8
  %call2 = call noundef ptr @_ZN7rocksdb20FullTypedCacheHelperINS_12BlobContentsENS_19BlobContentsCreatorELNS_14CacheEntryRoleE11EE13GetFullHelperEv()
  %2 = load ptr, ptr %create_context.addr, align 8
  %3 = load i32, ptr %priority.addr, align 4
  %4 = load ptr, ptr %stats.addr, align 8
  %vtable = load ptr, ptr %call, align 8
  %vfn = getelementptr inbounds ptr, ptr %vtable, i64 5
  %5 = load ptr, ptr %vfn, align 8
  %call3 = call noundef ptr %5(ptr noundef nonnull align 8 dereferenceable(56) %call, ptr noundef nonnull align 8 dereferenceable(16) %1, ptr noundef %call2, ptr noundef %2, i32 noundef %3, ptr noundef %4)
  store ptr %call3, ptr %retval, align 8
  br label %return

if.else:                                          ; preds = %entry
  %6 = load ptr, ptr %key.addr, align 8
  %7 = load ptr, ptr %stats.addr, align 8
  %call4 = call noundef ptr @_ZN7rocksdb24BasicTypedCacheInterfaceINS_12BlobContentsELNS_14CacheEntryRoleE11ESt10shared_ptrINS_5CacheEEE6LookupERKNS_5SliceEPNS_10StatisticsE(ptr noundef nonnull align 8 dereferenceable(16) %this1, ptr noundef nonnull align 8 dereferenceable(16) %6, ptr noundef %7)
  store ptr %call4, ptr %retval, align 8
  br label %return

return:                                           ; preds = %if.else, %if.then
  %8 = load ptr, ptr %retval, align 8
  ret ptr %8
}

; Function Attrs: mustprogress uwtable
define noundef ptr @_ZNK7rocksdb10BlobSource17GetEntryFromCacheERKNS_5SliceE(ptr noundef nonnull align 8 dereferenceable(57) %this, ptr noundef nonnull align 8 dereferenceable(16) %key) #0 align 2 {
entry:
  %this.addr = alloca ptr, align 8
  %key.addr = alloca ptr, align 8
  store ptr %this, ptr %this.addr, align 8
  store ptr %key, ptr %key.addr, align 8
  %this1 = load ptr, ptr %this.addr, align 8
  %blob_cache_ = getelementptr inbounds %"class.rocksdb::BlobSource", ptr %this1, i32 0, i32 4
  %0 = load ptr, ptr %key.addr, align 8
  %statistics_ = getelementptr inbounds %"class.rocksdb::BlobSource", ptr %this1, i32 0, i32 2
  %1 = load ptr, ptr %statistics_, align 8
  %lowest_used_cache_tier_ = getelementptr inbounds %"class.rocksdb::BlobSource", ptr %this1, i32 0, i32 5
  %2 = load i8, ptr %lowest_used_cache_tier_, align 8
  %call = call noundef ptr @_ZN7rocksdb23FullTypedCacheInterfaceINS_12BlobContentsENS_19BlobContentsCreatorELNS_14CacheEntryRoleE11ESt10shared_ptrINS_5CacheEEE10LookupFullERKNS_5SliceEPS2_NS5_8PriorityEPNS_10StatisticsENS_9CacheTierE(ptr noundef nonnull align 8 dereferenceable(17) %blob_cache_, ptr noundef nonnull align 8 dereferenceable(16) %0, ptr noundef null, i32 noundef 2, ptr noundef %1, i8 noundef zeroext %2)
  ret ptr %call
}