; Function Attrs: mustprogress uwtable
define noundef ptr @_ZNK7rocksdb10BlobSource17GetEntryFromCacheERKNS_5SliceE(ptr nocapture noundef nonnull readonly align 8 dereferenceable(57) %this, ptr noundef nonnull align 8 dereferenceable(16) %key) local_unnamed_addr #2 align 2 personality ptr @__gxx_personality_v0 {
entry:
  %blob_cache_ = getelementptr inbounds i8, ptr %this, i64 32
  %statistics_ = getelementptr inbounds i8, ptr %this, i64 16
  %0 = load ptr, ptr %statistics_, align 8
  %lowest_used_cache_tier_ = getelementptr inbounds i8, ptr %this, i64 56
  %1 = load i8, ptr %lowest_used_cache_tier_, align 8
  %cmp.not.i = icmp eq i8 %1, 0
  %2 = load ptr, ptr %blob_cache_, align 8
  br i1 %cmp.not.i, label %if.else.i, label %if.then.i

if.then.i:                                        ; preds = %entry
  %3 = load atomic i8, ptr @_ZGVZN7rocksdb20FullTypedCacheHelperINS_12BlobContentsENS_19BlobContentsCreatorELNS_14CacheEntryRoleE11EE13GetFullHelperEvE7kHelper acquire, align 8
  %guard.uninitialized.i.i = icmp eq i8 %3, 0
  br i1 %guard.uninitialized.i.i, label %init.check.i.i, label %_ZN7rocksdb20FullTypedCacheHelperINS_12BlobContentsENS_19BlobContentsCreatorELNS_14CacheEntryRoleE11EE13GetFullHelperEv.exit.i, !prof !12

init.check.i.i:                                   ; preds = %if.then.i
  %4 = tail call i32 @__cxa_guard_acquire(ptr nonnull @_ZGVZN7rocksdb20FullTypedCacheHelperINS_12BlobContentsENS_19BlobContentsCreatorELNS_14CacheEntryRoleE11EE13GetFullHelperEvE7kHelper) #22
  %tobool.not.i.i = icmp eq i32 %4, 0
  br i1 %tobool.not.i.i, label %_ZN7rocksdb20FullTypedCacheHelperINS_12BlobContentsENS_19BlobContentsCreatorELNS_14CacheEntryRoleE11EE13GetFullHelperEv.exit.i, label %init.i.i

init.i.i:                                         ; preds = %init.check.i.i
  %call.i.i = invoke noundef ptr @_ZN7rocksdb21BasicTypedCacheHelperINS_12BlobContentsELNS_14CacheEntryRoleE11EE14GetBasicHelperEv()
          to label %invoke.cont.i.i unwind label %lpad.i.i

invoke.cont.i.i:                                  ; preds = %init.i.i
  store ptr @_ZN7rocksdb24BasicTypedCacheHelperFnsINS_12BlobContentsEE6DeleteEPvPNS_15MemoryAllocatorE, ptr @_ZZN7rocksdb20FullTypedCacheHelperINS_12BlobContentsENS_19BlobContentsCreatorELNS_14CacheEntryRoleE11EE13GetFullHelperEvE7kHelper, align 8
  store ptr @_ZN7rocksdb23FullTypedCacheHelperFnsINS_12BlobContentsENS_19BlobContentsCreatorEE4SizeEPv, ptr getelementptr inbounds (%"struct.rocksdb::Cache::CacheItemHelper", ptr @_ZZN7rocksdb20FullTypedCacheHelperINS_12BlobContentsENS_19BlobContentsCreatorELNS_14CacheEntryRoleE11EE13GetFullHelperEvE7kHelper, i64 0, i32 1), align 8
  store ptr @_ZN7rocksdb23FullTypedCacheHelperFnsINS_12BlobContentsENS_19BlobContentsCreatorEE6SaveToEPvmmPc, ptr getelementptr inbounds (%"struct.rocksdb::Cache::CacheItemHelper", ptr @_ZZN7rocksdb20FullTypedCacheHelperINS_12BlobContentsENS_19BlobContentsCreatorELNS_14CacheEntryRoleE11EE13GetFullHelperEvE7kHelper, i64 0, i32 2), align 8
  store ptr @_ZN7rocksdb23FullTypedCacheHelperFnsINS_12BlobContentsENS_19BlobContentsCreatorEE6CreateERKNS_5SliceENS_15CompressionTypeENS_9CacheTierEPNS_5Cache13CreateContextEPNS_15MemoryAllocatorEPPvPm, ptr getelementptr inbounds (%"struct.rocksdb::Cache::CacheItemHelper", ptr @_ZZN7rocksdb20FullTypedCacheHelperINS_12BlobContentsENS_19BlobContentsCreatorELNS_14CacheEntryRoleE11EE13GetFullHelperEvE7kHelper, i64 0, i32 3), align 8
  store i32 11, ptr getelementptr inbounds (%"struct.rocksdb::Cache::CacheItemHelper", ptr @_ZZN7rocksdb20FullTypedCacheHelperINS_12BlobContentsENS_19BlobContentsCreatorELNS_14CacheEntryRoleE11EE13GetFullHelperEvE7kHelper, i64 0, i32 4), align 8
  store ptr %call.i.i, ptr getelementptr inbounds (%"struct.rocksdb::Cache::CacheItemHelper", ptr @_ZZN7rocksdb20FullTypedCacheHelperINS_12BlobContentsENS_19BlobContentsCreatorELNS_14CacheEntryRoleE11EE13GetFullHelperEvE7kHelper, i64 0, i32 5), align 8
  tail call void @__cxa_guard_release(ptr nonnull @_ZGVZN7rocksdb20FullTypedCacheHelperINS_12BlobContentsENS_19BlobContentsCreatorELNS_14CacheEntryRoleE11EE13GetFullHelperEvE7kHelper) #22
  br label %_ZN7rocksdb20FullTypedCacheHelperINS_12BlobContentsENS_19BlobContentsCreatorELNS_14CacheEntryRoleE11EE13GetFullHelperEv.exit.i

lpad.i.i:                                         ; preds = %init.i.i
  %5 = landingpad { ptr, i32 }
          cleanup
  tail call void @__cxa_guard_abort(ptr nonnull @_ZGVZN7rocksdb20FullTypedCacheHelperINS_12BlobContentsENS_19BlobContentsCreatorELNS_14CacheEntryRoleE11EE13GetFullHelperEvE7kHelper) #22
  resume { ptr, i32 } %5

_ZN7rocksdb20FullTypedCacheHelperINS_12BlobContentsENS_19BlobContentsCreatorELNS_14CacheEntryRoleE11EE13GetFullHelperEv.exit.i: ; preds = %invoke.cont.i.i, %init.check.i.i, %if.then.i
  %vtable.i = load ptr, ptr %2, align 8
  %vfn.i = getelementptr inbounds i8, ptr %vtable.i, i64 40
  %6 = load ptr, ptr %vfn.i, align 8
  %call3.i = tail call noundef ptr %6(ptr noundef nonnull align 8 dereferenceable(56) %2, ptr noundef nonnull align 8 dereferenceable(16) %key, ptr noundef nonnull @_ZZN7rocksdb20FullTypedCacheHelperINS_12BlobContentsENS_19BlobContentsCreatorELNS_14CacheEntryRoleE11EE13GetFullHelperEvE7kHelper, ptr noundef null, i32 noundef 2, ptr noundef %0)
  br label %_ZN7rocksdb23FullTypedCacheInterfaceINS_12BlobContentsENS_19BlobContentsCreatorELNS_14CacheEntryRoleE11ESt10shared_ptrINS_5CacheEEE10LookupFullERKNS_5SliceEPS2_NS5_8PriorityEPNS_10StatisticsENS_9CacheTierE.exit

if.else.i:                                        ; preds = %entry
  %vtable.i.i.i = load ptr, ptr %2, align 8
  %vfn.i.i.i = getelementptr inbounds i8, ptr %vtable.i.i.i, i64 40
  %7 = load ptr, ptr %vfn.i.i.i, align 8
  %call.i.i.i = tail call noundef ptr %7(ptr noundef nonnull align 8 dereferenceable(56) %2, ptr noundef nonnull align 8 dereferenceable(16) %key, ptr noundef null, ptr noundef null, i32 noundef 1, ptr noundef %0)
  br label %_ZN7rocksdb23FullTypedCacheInterfaceINS_12BlobContentsENS_19BlobContentsCreatorELNS_14CacheEntryRoleE11ESt10shared_ptrINS_5CacheEEE10LookupFullERKNS_5SliceEPS2_NS5_8PriorityEPNS_10StatisticsENS_9CacheTierE.exit

_ZN7rocksdb23FullTypedCacheInterfaceINS_12BlobContentsENS_19BlobContentsCreatorELNS_14CacheEntryRoleE11ESt10shared_ptrINS_5CacheEEE10LookupFullERKNS_5SliceEPS2_NS5_8PriorityEPNS_10StatisticsENS_9CacheTierE.exit: ; preds = %_ZN7rocksdb20FullTypedCacheHelperINS_12BlobContentsENS_19BlobContentsCreatorELNS_14CacheEntryRoleE11EE13GetFullHelperEv.exit.i, %if.else.i
  %retval.0.i = phi ptr [ %call3.i, %_ZN7rocksdb20FullTypedCacheHelperINS_12BlobContentsENS_19BlobContentsCreatorELNS_14CacheEntryRoleE11EE13GetFullHelperEv.exit.i ], [ %call.i.i.i, %if.else.i ]
  ret ptr %retval.0.i
}